; Function Attrs: nounwind sspstrong uwtable
define dso_local noundef zeroext i1 @visit_type_AudiodevCoreaudioPerDirectionOptions_members(ptr noundef %v, ptr noundef %obj, ptr noundef %errp) local_unnamed_addr #0 {
entry:
  %call = tail call zeroext i1 @visit_type_AudiodevPerDirectionOptions_members(ptr noundef %v, ptr noundef %obj, ptr noundef %errp)
  br i1 %call, label %if.end, label %return

if.end:                                           ; preds = %entry
  %has_buffer_count = getelementptr inbounds nuw i8, ptr %obj, i64 44
  %call1 = tail call zeroext i1 @visit_optional(ptr noundef %v, ptr noundef nonnull @.str.16, ptr noundef nonnull %has_buffer_count) #5
  br i1 %call1, label %if.then2, label %if.end6

if.then2:                                         ; preds = %if.end
  %buffer_count = getelementptr inbounds nuw i8, ptr %obj, i64 48
  %call3 = tail call zeroext i1 @visit_type_uint32(ptr noundef %v, ptr noundef nonnull @.str.16, ptr noundef nonnull %buffer_count, ptr noundef %errp) #5
  br i1 %call3, label %if.end6, label %return

if.end6:                                          ; preds = %if.then2, %if.end
  br label %return

return:                                           ; preds = %if.then2, %entry, %if.end6
  %retval.0 = phi i1 [ true, %if.end6 ], [ false, %entry ], [ false, %if.then2 ]
  ret i1 %retval.0
}